target datalayout = "e-m:e-p270:32:32-p271:32:32-p272:64:64-i64:64-i128:128-f80:128-n8:16:32:64-S128"
target triple = "x86_64-pc-linux-gnu"

%struct.lhash_st = type { ptr, ptr, ptr, ptr, ptr, ptr, ptr, i32, i32, i32, i32, i64, i64, i64, i32 }

@.str = private unnamed_addr constant [32 x i8] c"../openssl/crypto/lhash/lhash.c\00", align 1

; Function Attrs: nounwind uwtable
define ptr @OPENSSL_LH_new(ptr noundef %0, ptr noundef %1) #0 {
  %3 = alloca ptr, align 8
  %4 = alloca ptr, align 8
  %5 = alloca ptr, align 8
  %6 = alloca ptr, align 8
  %7 = alloca i32, align 4
  store ptr %0, ptr %4, align 8, !tbaa !8
  store ptr %1, ptr %5, align 8, !tbaa !8
  call void @llvm.lifetime.start.p0(i64 8, ptr %6) #5
  %8 = call noalias ptr @CRYPTO_zalloc(i64 noundef 104, ptr noundef @.str, i32 noundef 67)
  store ptr %8, ptr %6, align 8, !tbaa !3
  %9 = icmp eq ptr %8, null
  br i1 %9, label %10, label %11

10:                                               ; preds = %2
  store ptr null, ptr %3, align 8
  store i32 1, ptr %7, align 4
  br label %52

11:                                               ; preds = %2
  %12 = call noalias ptr @CRYPTO_zalloc(i64 noundef 128, ptr noundef @.str, i32 noundef 69)
  %13 = load ptr, ptr %6, align 8, !tbaa !3
  %14 = getelementptr inbounds nuw %struct.lhash_st, ptr %13, i32 0, i32 0
  store ptr %12, ptr %14, align 8, !tbaa !17
  %15 = icmp eq ptr %12, null
  br i1 %15, label %16, label %17

16:                                               ; preds = %11
  br label %47

17:                                               ; preds = %11
  %18 = load ptr, ptr %5, align 8, !tbaa !8
  %19 = icmp eq ptr %18, null
  br i1 %19, label %20, label %21

20:                                               ; preds = %17
  br label %23

21:                                               ; preds = %17
  %22 = load ptr, ptr %5, align 8, !tbaa !8
  br label %23

23:                                               ; preds = %21, %20
  %24 = phi ptr [ @strcmp, %20 ], [ %22, %21 ]
  %25 = load ptr, ptr %6, align 8, !tbaa !3
  %26 = getelementptr inbounds nuw %struct.lhash_st, ptr %25, i32 0, i32 1
  store ptr %24, ptr %26, align 8, !tbaa !18
  %27 = load ptr, ptr %4, align 8, !tbaa !8
  %28 = icmp eq ptr %27, null
  br i1 %28, label %29, label %30

29:                                               ; preds = %23
  br label %32

30:                                               ; preds = %23
  %31 = load ptr, ptr %4, align 8, !tbaa !8
  br label %32

32:                                               ; preds = %30, %29
  %33 = phi ptr [ @OPENSSL_LH_strhash, %29 ], [ %31, %30 ]
  %34 = load ptr, ptr %6, align 8, !tbaa !3
  %35 = getelementptr inbounds nuw %struct.lhash_st, ptr %34, i32 0, i32 2
  store ptr %33, ptr %35, align 8, !tbaa !19
  %36 = load ptr, ptr %6, align 8, !tbaa !3
  %37 = getelementptr inbounds nuw %struct.lhash_st, ptr %36, i32 0, i32 7
  store i32 8, ptr %37, align 8, !tbaa !20
  %38 = load ptr, ptr %6, align 8, !tbaa !3
  %39 = getelementptr inbounds nuw %struct.lhash_st, ptr %38, i32 0, i32 8
  store i32 16, ptr %39, align 4, !tbaa !21
  %40 = load ptr, ptr %6, align 8, !tbaa !3
  %41 = getelementptr inbounds nuw %struct.lhash_st, ptr %40, i32 0, i32 10
  store i32 8, ptr %41, align 4, !tbaa !22
  %42 = load ptr, ptr %6, align 8, !tbaa !3
  %43 = getelementptr inbounds nuw %struct.lhash_st, ptr %42, i32 0, i32 11
  store i64 512, ptr %43, align 8, !tbaa !23
  %44 = load ptr, ptr %6, align 8, !tbaa !3
  %45 = getelementptr inbounds nuw %struct.lhash_st, ptr %44, i32 0, i32 12
  store i64 256, ptr %45, align 8, !tbaa !24
  %46 = load ptr, ptr %6, align 8, !tbaa !3
  store ptr %46, ptr %3, align 8
  store i32 1, ptr %7, align 4
  br label %52

47:                                               ; preds = %16
  %48 = load ptr, ptr %6, align 8, !tbaa !3
  %49 = getelementptr inbounds nuw %struct.lhash_st, ptr %48, i32 0, i32 0
  %50 = load ptr, ptr %49, align 8, !tbaa !17
  call void @CRYPTO_free(ptr noundef %50, ptr noundef @.str, i32 noundef 81)
  %51 = load ptr, ptr %6, align 8, !tbaa !3
  call void @CRYPTO_free(ptr noundef %51, ptr noundef @.str, i32 noundef 82)
  store ptr null, ptr %3, align 8
  store i32 1, ptr %7, align 4
  br label %52

52:                                               ; preds = %47, %32, %10
  call void @llvm.lifetime.end.p0(i64 8, ptr %6) #5
  %53 = load ptr, ptr %3, align 8
  ret ptr %53
}