; Function Attrs: nounwind uwtable
define ptr @OPENSSL_LH_new(ptr noundef %0, ptr noundef %1) local_unnamed_addr #1 {
  %3 = tail call noalias ptr @CRYPTO_zalloc(i64 noundef 104, ptr noundef nonnull @.str, i32 noundef 67) #7
  %4 = icmp eq ptr %3, null
  br i1 %4, label %21, label %5

5:                                                ; preds = %2
  %6 = tail call noalias ptr @CRYPTO_zalloc(i64 noundef 128, ptr noundef nonnull @.str, i32 noundef 69) #7
  store ptr %6, ptr %3, align 8, !tbaa !14
  %7 = icmp eq ptr %6, null
  br i1 %7, label %20, label %8

8:                                                ; preds = %5
  %9 = icmp eq ptr %1, null
  %10 = select i1 %9, ptr @strcmp, ptr %1
  %11 = getelementptr inbounds nuw i8, ptr %3, i64 8
  store ptr %10, ptr %11, align 8, !tbaa !15
  %12 = icmp eq ptr %0, null
  %13 = select i1 %12, ptr @OPENSSL_LH_strhash, ptr %0
  %14 = getelementptr inbounds nuw i8, ptr %3, i64 16
  store ptr %13, ptr %14, align 8, !tbaa !16
  %15 = getelementptr inbounds nuw i8, ptr %3, i64 56
  store i32 8, ptr %15, align 8, !tbaa !17
  %16 = getelementptr inbounds nuw i8, ptr %3, i64 60
  store i32 16, ptr %16, align 4, !tbaa !18
  %17 = getelementptr inbounds nuw i8, ptr %3, i64 68
  store i32 8, ptr %17, align 4, !tbaa !19
  %18 = getelementptr inbounds nuw i8, ptr %3, i64 72
  store i64 512, ptr %18, align 8, !tbaa !20
  %19 = getelementptr inbounds nuw i8, ptr %3, i64 80
  store i64 256, ptr %19, align 8, !tbaa !21
  br label %21

20:                                               ; preds = %5
  tail call void @CRYPTO_free(ptr noundef null, ptr noundef nonnull @.str, i32 noundef 81) #7
  tail call void @CRYPTO_free(ptr noundef nonnull %3, ptr noundef nonnull @.str, i32 noundef 82) #7
  br label %21

21:                                               ; preds = %2, %20, %8
  %.0 = phi ptr [ null, %20 ], [ %3, %8 ], [ null, %2 ]
  ret ptr %.0
}